---
triple:          'arm64-apple-darwin'
binary-path:     '/Users/brandonallen/Projects/github/atcoder_submissions/cpp/GCD_Permutation'
relocations:
  - { offset: 0x349EA, size: 0x8, addend: 0x0, symName: __ZStL8__ioinit, symObjAddr: 0x1003E6, symBinAddr: 0x100010070, symSize: 0x0 }
  - { offset: 0x35225, size: 0x8, addend: 0x0, symName: __ZNSt3tr112_GLOBAL__N_16ignoreE, symObjAddr: 0x1003E7, symBinAddr: 0x100010071, symSize: 0x0 }
  - { offset: 0x352BF, size: 0x8, addend: 0x0, symName: _didj, symObjAddr: 0x4780, symBinAddr: 0x100010000, symSize: 0x0 }
  - { offset: 0x3531E, size: 0x8, addend: 0x0, symName: __Z2nyB5cxx11, symObjAddr: 0x47A0, symBinAddr: 0x100010020, symSize: 0x0 }
  - { offset: 0x35335, size: 0x8, addend: 0x0, symName: _inf, symObjAddr: 0x47E0, symBinAddr: 0x100010060, symSize: 0x0 }
  - { offset: 0x3534C, size: 0x8, addend: 0x0, symName: _mod, symObjAddr: 0x47E8, symBinAddr: 0x100010068, symSize: 0x0 }
  - { offset: 0x353AA, size: 0x8, addend: 0x0, symName: _mob, symObjAddr: 0x1003E8, symBinAddr: 0x100010078, symSize: 0x0 }
  - { offset: 0x35408, size: 0x8, addend: 0x0, symName: _factors, symObjAddr: 0x1C38F0, symBinAddr: 0x1000D3580, symSize: 0x0 }
  - { offset: 0x35C99, size: 0x8, addend: 0x0, symName: __GLOBAL__sub_I_GCD_Permutation.cpp, symObjAddr: 0x4934, symBinAddr: 0x100004D80, symSize: 0x14 }
  - { offset: 0x35CB1, size: 0x8, addend: 0x0, symName: __Z41__static_initialization_and_destruction_0v, symObjAddr: 0x48C0, symBinAddr: 0x100004D0C, symSize: 0x74 }
  - { offset: 0x35CF4, size: 0x8, addend: 0x0, symName: __ZNSt5arrayISt6vectorIiSaIiEELm200001EED1Ev, symObjAddr: 0x44CC, symBinAddr: 0x100004CB4, symSize: 0x58 }
  - { offset: 0x35D41, size: 0x8, addend: 0x0, symName: __ZNSt5arrayINSt7__cxx1112basic_stringIcSt11char_traitsIcESaIcEEELm2EED1Ev, symObjAddr: 0x447C, symBinAddr: 0x100004C64, symSize: 0x50 }
  - { offset: 0x35D63, size: 0x8, addend: 0x0, symName: __ZNSt10_Head_baseILm0EOSt4pairIiiELb0EE7_M_headERS3_, symObjAddr: 0x4464, symBinAddr: 0x100004C4C, symSize: 0x18 }
  - { offset: 0x35D8C, size: 0x8, addend: 0x0, symName: __ZNSt11_Tuple_implILm0EJOSt4pairIiiEEE7_M_headERS3_, symObjAddr: 0x4448, symBinAddr: 0x100004C30, symSize: 0x1C }
  - { offset: 0x35DB6, size: 0x8, addend: 0x0, symName: __ZNSt11__copy_moveILb0ELb0ESt26random_access_iterator_tagE12__assign_oneIiiEEvPT_PT0_, symObjAddr: 0x4420, symBinAddr: 0x100004C08, symSize: 0x28 }
  - { offset: 0x35E03, size: 0x8, addend: 0x0, symName: __ZNSt11__copy_moveILb0ELb0ESt26random_access_iterator_tagE12__assign_oneIiKiEEvPT_PT0_, symObjAddr: 0x43F8, symBinAddr: 0x100004BE0, symSize: 0x28 }
  - { offset: 0x35E50, size: 0x8, addend: 0x0, symName: __ZSt13__copy_move_aILb0EN9__gnu_cxx17__normal_iteratorIPKiSt6vectorIiSaIiEEEEPiET1_T0_SA_S9_, symObjAddr: 0x4398, symBinAddr: 0x100004B80, symSize: 0x60 }
  - { offset: 0x35EB8, size: 0x8, addend: 0x0, symName: __ZSt12__get_helperILm0EOSt4pairIiiEJEERT0_RSt11_Tuple_implIXT_EJS3_DpT1_EE, symObjAddr: 0x437C, symBinAddr: 0x100004B64, symSize: 0x1C }
  - { offset: 0x35EFA, size: 0x8, addend: 0x0, symName: __ZNSt11__copy_moveILb0ELb1ESt26random_access_iterator_tagE8__copy_mIiiEEPT0_PT_S6_S4_, symObjAddr: 0x42EC, symBinAddr: 0x100004AD4, symSize: 0x90 }
  - { offset: 0x35F69, size: 0x8, addend: 0x0, symName: __ZNSt11__copy_moveILb0ELb0ESt26random_access_iterator_tagE8__copy_mIPiS3_EET0_T_S5_S4_, symObjAddr: 0x4278, symBinAddr: 0x100004A60, symSize: 0x74 }
  - { offset: 0x35FF8, size: 0x8, addend: 0x0, symName: __ZNSt11__copy_moveILb0ELb1ESt26random_access_iterator_tagE8__copy_mIKiiEEPT0_PT_S7_S5_, symObjAddr: 0x41E8, symBinAddr: 0x1000049D0, symSize: 0x90 }
  - { offset: 0x36067, size: 0x8, addend: 0x0, symName: __ZNSt11__copy_moveILb0ELb0ESt26random_access_iterator_tagE8__copy_mIPKiPiEET0_T_S7_S6_, symObjAddr: 0x4174, symBinAddr: 0x10000495C, symSize: 0x74 }
  - { offset: 0x360F6, size: 0x8, addend: 0x0, symName: __ZSt4copyIN9__gnu_cxx17__normal_iteratorIPKiSt6vectorIiSaIiEEEEPiET0_T_SA_S9_, symObjAddr: 0x412C, symBinAddr: 0x100004914, symSize: 0x48 }
  - { offset: 0x3615B, size: 0x8, addend: 0x0, symName: __ZSt7forwardIOSt4pairIiiEEOT_RNSt16remove_referenceIS3_E4typeE, symObjAddr: 0x4118, symBinAddr: 0x100004900, symSize: 0x14 }
  - { offset: 0x3618D, size: 0x8, addend: 0x0, symName: __ZSt3getILm0EJOSt4pairIiiEEERNSt13tuple_elementIXT_ESt5tupleIJDpT0_EEE4typeERS7_, symObjAddr: 0x40FC, symBinAddr: 0x1000048E4, symSize: 0x1C }
  - { offset: 0x361CC, size: 0x8, addend: 0x0, symName: __ZSt12construct_atIiJiEEDTgsnwcvPvLi0E_T_pispcl7declvalIT0_EEEEPS1_DpOS2_, symObjAddr: 0x40B4, symBinAddr: 0x10000489C, symSize: 0x48 }
  - { offset: 0x36218, size: 0x8, addend: 0x0, symName: __ZSt12construct_atIiJRiEEDTgsnwcvPvLi0E_T_pispcl7declvalIT0_EEEEPS2_DpOS3_, symObjAddr: 0x406C, symBinAddr: 0x100004854, symSize: 0x48 }
  - { offset: 0x36264, size: 0x8, addend: 0x0, symName: __ZSt14__copy_move_a2ILb0EPiS0_ET1_T0_S2_S1_, symObjAddr: 0x4018, symBinAddr: 0x100004800, symSize: 0x54 }
  - { offset: 0x362D0, size: 0x8, addend: 0x0, symName: __ZNK9__gnu_cxx17__normal_iteratorIPiSt6vectorIiSaIiEEEplEl, symObjAddr: 0x3FD8, symBinAddr: 0x1000047C0, symSize: 0x40 }
  - { offset: 0x36307, size: 0x8, addend: 0x0, symName: __ZSt14__copy_move_a2ILb0EPKiPiET1_T0_S4_S3_, symObjAddr: 0x3F84, symBinAddr: 0x10000476C, symSize: 0x54 }
  - { offset: 0x3636F, size: 0x8, addend: 0x0, symName: __ZNSt20__uninitialized_copyILb1EE13__uninit_copyIN9__gnu_cxx17__normal_iteratorIPKiSt6vectorIiSaIiEEEEPiEET0_T_SC_SB_, symObjAddr: 0x3F58, symBinAddr: 0x100004740, symSize: 0x2C }
  - { offset: 0x363CA, size: 0x8, addend: 0x0, symName: __ZSt10_ConstructIiJRKiEEvPT_DpOT0_, symObjAddr: 0x3EEC, symBinAddr: 0x1000046D4, symSize: 0x6C }
  - { offset: 0x36433, size: 0x8, addend: 0x0, symName: __ZNK9__gnu_cxx17__normal_iteratorIPKiSt6vectorIiSaIiEEEdeEv, symObjAddr: 0x3ED4, symBinAddr: 0x1000046BC, symSize: 0x18 }
  - { offset: 0x3645D, size: 0x8, addend: 0x0, symName: __ZN9__gnu_cxx17__normal_iteratorIPKiSt6vectorIiSaIiEEEppEv, symObjAddr: 0x3EAC, symBinAddr: 0x100004694, symSize: 0x28 }
  - { offset: 0x364D2, size: 0x8, addend: 0x0, symName: __ZNSt4pairIKS_IiiExEC1IJOS0_EJEEESt21piecewise_construct_tSt5tupleIJDpT_EES6_IJDpT0_EE, symObjAddr: 0x3E70, symBinAddr: 0x100004658, symSize: 0x3C }
  - { offset: 0x3658D, size: 0x8, addend: 0x0, symName: __ZNSt4pairIKS_IiiExEC1IJOS0_EJLm0EEJEJEEERSt5tupleIJDpT_EERS5_IJDpT1_EESt12_Index_tupleIJXspT0_EEESE_IJXspT2_EEE, symObjAddr: 0x3E24, symBinAddr: 0x10000460C, symSize: 0x4C }
  - { offset: 0x36628, size: 0x8, addend: 0x0, symName: __ZNSt11_Tuple_implILm0EJOSt4pairIiiEEEC2EOS3_, symObjAddr: 0x3DFC, symBinAddr: 0x1000045E4, symSize: 0x28 }
  - { offset: 0x36657, size: 0x8, addend: 0x0, symName: __ZNSt15__new_allocatorISt13_Rb_tree_nodeISt4pairIKS1_IiiExEEE8allocateEmPKv, symObjAddr: 0x3D6C, symBinAddr: 0x100004554, symSize: 0x90 }
  - { offset: 0x36757, size: 0x8, addend: 0x0, symName: __ZSt4moveIRiEONSt16remove_referenceIT_E4typeEOS2_, symObjAddr: 0x3D58, symBinAddr: 0x100004540, symSize: 0x14 }
  - { offset: 0x36789, size: 0x8, addend: 0x0, symName: __ZNSt20__uninitialized_copyILb1EE13__uninit_copyIPiS2_EET0_T_S4_S3_, symObjAddr: 0x3D2C, symBinAddr: 0x100004514, symSize: 0x2C }
  - { offset: 0x367E4, size: 0x8, addend: 0x0, symName: __ZSt10_ConstructIiJRiEEvPT_DpOT0_, symObjAddr: 0x3CC0, symBinAddr: 0x1000044A8, symSize: 0x6C }
  - { offset: 0x36849, size: 0x8, addend: 0x0, symName: __ZSt12__niter_wrapIPiET_RKS1_S1_, symObjAddr: 0x3CA8, symBinAddr: 0x100004490, symSize: 0x18 }
  - { offset: 0x36885, size: 0x8, addend: 0x0, symName: __ZSt14__copy_move_a1ILb0EPiS0_ET1_T0_S2_S1_, symObjAddr: 0x3C7C, symBinAddr: 0x100004464, symSize: 0x2C }
  - { offset: 0x368ED, size: 0x8, addend: 0x0, symName: __ZNSt12_Destroy_auxILb1EE9__destroyIN9__gnu_cxx17__normal_iteratorIPiSt6vectorIiSaIiEEEEEEvT_S9_, symObjAddr: 0x3C64, symBinAddr: 0x10000444C, symSize: 0x18 }
  - { offset: 0x36921, size: 0x8, addend: 0x0, symName: __ZNSt12_Destroy_auxILb0EE9__destroyIN9__gnu_cxx17__normal_iteratorIPiSt6vectorIiSaIiEEEEEEvT_S9_, symObjAddr: 0x3C08, symBinAddr: 0x1000043F0, symSize: 0x5C }
  - { offset: 0x36963, size: 0x8, addend: 0x0, symName: __ZSt12__niter_wrapIN9__gnu_cxx17__normal_iteratorIPiSt6vectorIiSaIiEEEES2_ET_S7_T0_, symObjAddr: 0x3BC0, symBinAddr: 0x1000043A8, symSize: 0x48 }
  - { offset: 0x369B0, size: 0x8, addend: 0x0, symName: __ZSt14__copy_move_a1ILb0EPKiPiET1_T0_S4_S3_, symObjAddr: 0x3B94, symBinAddr: 0x10000437C, symSize: 0x2C }
  - { offset: 0x36A18, size: 0x8, addend: 0x0, symName: __ZSt12__niter_baseIPiSt6vectorIiSaIiEEET_N9__gnu_cxx17__normal_iteratorIS4_T0_EE, symObjAddr: 0x3B74, symBinAddr: 0x10000435C, symSize: 0x20 }
  - { offset: 0x36A54, size: 0x8, addend: 0x0, symName: __ZSt12__niter_baseIPKiSt6vectorIiSaIiEEET_N9__gnu_cxx17__normal_iteratorIS5_T0_EE, symObjAddr: 0x3B54, symBinAddr: 0x10000433C, symSize: 0x20 }
  - { offset: 0x36A90, size: 0x8, addend: 0x0, symName: __ZSt18uninitialized_copyIN9__gnu_cxx17__normal_iteratorIPKiSt6vectorIiSaIiEEEEPiET0_T_SA_S9_, symObjAddr: 0x3B18, symBinAddr: 0x100004300, symSize: 0x3C }
  - { offset: 0x36B0B, size: 0x8, addend: 0x0, symName: __ZSt16__do_uninit_copyIN9__gnu_cxx17__normal_iteratorIPKiSt6vectorIiSaIiEEEEPiET0_T_SA_S9_, symObjAddr: 0x3A90, symBinAddr: 0x100004278, symSize: 0x88 }
  - { offset: 0x36B7D, size: 0x8, addend: 0x0, symName: __ZN9__gnu_cxxeqIPKiSt6vectorIiSaIiEEEEbRKNS_17__normal_iteratorIT_T0_EESB_QrqXeqcldtfL0p_4baseEcldtfL0p0_4baseERSt14convertible_toIbEE, symObjAddr: 0x3A4C, symBinAddr: 0x100004234, symSize: 0x44 }
  - { offset: 0x36BCE, size: 0x8, addend: 0x0, symName: __ZNK9__gnu_cxx17__normal_iteratorIPKiSt6vectorIiSaIiEEE4baseEv, symObjAddr: 0x3A38, symBinAddr: 0x100004220, symSize: 0x14 }
  - { offset: 0x36BF8, size: 0x8, addend: 0x0, symName: __ZNK9__gnu_cxx16__aligned_membufISt4pairIKS1_IiiExEE7_M_addrEv, symObjAddr: 0x3A24, symBinAddr: 0x10000420C, symSize: 0x14 }
  - { offset: 0x36C25, size: 0x8, addend: 0x0, symName: __ZSt12construct_atISt4pairIKS0_IiiExEJRKSt21piecewise_construct_tSt5tupleIJOS1_EES7_IJEEEEDTgsnwcvPvLi0E_T_pispcl7declvalIT0_EEEEPSC_DpOSD_, symObjAddr: 0x396C, symBinAddr: 0x100004154, symSize: 0xB8 }
  - { offset: 0x36CB0, size: 0x8, addend: 0x0, symName: __ZNSt5tupleIJOSt4pairIiiEEEC1EOS3_, symObjAddr: 0x3944, symBinAddr: 0x10000412C, symSize: 0x28 }
  - { offset: 0x36D02, size: 0x8, addend: 0x0, symName: __ZNSt15__new_allocatorISt13_Rb_tree_nodeISt4pairIKS1_IiiExEEE10deallocateEPS5_m, symObjAddr: 0x3908, symBinAddr: 0x1000040F0, symSize: 0x3C }
  - { offset: 0x36D48, size: 0x8, addend: 0x0, symName: __ZSt19__relocate_object_aIiiSaIiEEvPT_PT0_RT1_, symObjAddr: 0x3890, symBinAddr: 0x100004078, symSize: 0x78 }
  - { offset: 0x36E17, size: 0x8, addend: 0x0, symName: __ZNK9__gnu_cxx17__normal_iteratorIPivEdeEv, symObjAddr: 0x3878, symBinAddr: 0x100004060, symSize: 0x18 }
  - { offset: 0x36E41, size: 0x8, addend: 0x0, symName: __ZN9__gnu_cxx17__normal_iteratorIPivEppEv, symObjAddr: 0x3850, symBinAddr: 0x100004038, symSize: 0x28 }
  - { offset: 0x36E67, size: 0x8, addend: 0x0, symName: __ZSt18uninitialized_copyIPiS0_ET0_T_S2_S1_, symObjAddr: 0x3814, symBinAddr: 0x100003FFC, symSize: 0x3C }
  - { offset: 0x36EE2, size: 0x8, addend: 0x0, symName: __ZSt16__do_uninit_copyIPiS0_ET0_T_S2_S1_, symObjAddr: 0x37B0, symBinAddr: 0x100003F98, symSize: 0x64 }
  - { offset: 0x36F4D, size: 0x8, addend: 0x0, symName: __ZSt13__copy_move_aILb0EPiS0_ET1_T0_S2_S1_, symObjAddr: 0x3750, symBinAddr: 0x100003F38, symSize: 0x60 }
  - { offset: 0x36FB5, size: 0x8, addend: 0x0, symName: __ZSt12__miter_baseIPiET_S1_, symObjAddr: 0x373C, symBinAddr: 0x100003F24, symSize: 0x14 }
  - { offset: 0x36FE8, size: 0x8, addend: 0x0, symName: __ZSt8_DestroyIN9__gnu_cxx17__normal_iteratorIPiSt6vectorIiSaIiEEEEEvT_S7_, symObjAddr: 0x36F8, symBinAddr: 0x100003EE0, symSize: 0x44 }
  - { offset: 0x37043, size: 0x8, addend: 0x0, symName: __ZSt13__copy_move_aILb0EN9__gnu_cxx17__normal_iteratorIPKiSt6vectorIiSaIiEEEENS1_IPiS6_EEET1_T0_SB_SA_, symObjAddr: 0x3698, symBinAddr: 0x100003E80, symSize: 0x60 }
  - { offset: 0x370AB, size: 0x8, addend: 0x0, symName: __ZSt12__miter_baseIN9__gnu_cxx17__normal_iteratorIPKiSt6vectorIiSaIiEEEEET_S8_, symObjAddr: 0x3684, symBinAddr: 0x100003E6C, symSize: 0x14 }
  - { offset: 0x370DE, size: 0x8, addend: 0x0, symName: __ZSt22__uninitialized_copy_aIN9__gnu_cxx17__normal_iteratorIPKiSt6vectorIiSaIiEEEEPiiET0_T_SA_S9_RSaIT1_E, symObjAddr: 0x362C, symBinAddr: 0x100003E14, symSize: 0x58 }
  - { offset: 0x3717A, size: 0x8, addend: 0x0, symName: __ZN9__gnu_cxx17__normal_iteratorIPKiSt6vectorIiSaIiEEEC1ERKS2_, symObjAddr: 0x3604, symBinAddr: 0x100003DEC, symSize: 0x28 }
  - { offset: 0x371A9, size: 0x8, addend: 0x0, symName: __ZNSt6vectorIiSaIiEE15_M_erase_at_endEPi, symObjAddr: 0x357C, symBinAddr: 0x100003D64, symSize: 0x88 }
  - { offset: 0x3723E, size: 0x8, addend: 0x0, symName: __ZNK9__gnu_cxx16__aligned_membufISt4pairIKS1_IiiExEE6_M_ptrEv, symObjAddr: 0x3560, symBinAddr: 0x100003D48, symSize: 0x1C }
  - { offset: 0x37272, size: 0x8, addend: 0x0, symName: __ZSt7forwardIRPSt13_Rb_tree_nodeISt4pairIKS1_IiiExEEEOT_RNSt16remove_referenceIS8_E4typeE, symObjAddr: 0x354C, symBinAddr: 0x100003D34, symSize: 0x14 }
  - { offset: 0x37350, size: 0x8, addend: 0x0, symName: __ZSt10destroy_atISt4pairIKS0_IiiExEEvPT_, symObjAddr: 0x3538, symBinAddr: 0x100003D20, symSize: 0x14 }
  - { offset: 0x37386, size: 0x8, addend: 0x0, symName: __ZNK9__gnu_cxx17__normal_iteratorIPivE4baseEv, symObjAddr: 0x3524, symBinAddr: 0x100003D0C, symSize: 0x14 }
  - { offset: 0x373AC, size: 0x8, addend: 0x0, symName: __ZSt14__relocate_a_1IPiN9__gnu_cxx17__normal_iteratorIS0_vEESaIiEET0_T_S6_S5_RT1_, symObjAddr: 0x34A0, symBinAddr: 0x100003C88, symSize: 0x84 }
  - { offset: 0x37439, size: 0x8, addend: 0x0, symName: __ZNSt15__new_allocatorIiE8allocateEmPKv, symObjAddr: 0x3424, symBinAddr: 0x100003C0C, symSize: 0x7C }
  - { offset: 0x374C1, size: 0x8, addend: 0x0, symName: __ZSt22__uninitialized_copy_aIPiS0_iET0_T_S2_S1_RSaIT1_E, symObjAddr: 0x33CC, symBinAddr: 0x100003BB4, symSize: 0x58 }
  - { offset: 0x37531, size: 0x8, addend: 0x0, symName: __ZSt4copyIPiS0_ET0_T_S2_S1_, symObjAddr: 0x3384, symBinAddr: 0x100003B6C, symSize: 0x48 }
  - { offset: 0x375CA, size: 0x8, addend: 0x0, symName: __ZSt4copyIN9__gnu_cxx17__normal_iteratorIPKiSt6vectorIiSaIiEEEENS1_IPiS6_EEET0_T_SB_SA_, symObjAddr: 0x333C, symBinAddr: 0x100003B24, symSize: 0x48 }
  - { offset: 0x3762C, size: 0x8, addend: 0x0, symName: __ZNSt6vectorIiSaIiEE20_M_allocate_and_copyIN9__gnu_cxx17__normal_iteratorIPKiS1_EEEEPimT_S9_, symObjAddr: 0x32B8, symBinAddr: 0x100003AA0, symSize: 0x84 }
  - { offset: 0x376A3, size: 0x8, addend: 0x0, symName: __ZNKSt6vectorIiSaIiEE3endEv, symObjAddr: 0x3290, symBinAddr: 0x100003A78, symSize: 0x28 }
  - { offset: 0x376CD, size: 0x8, addend: 0x0, symName: __ZNKSt6vectorIiSaIiEE5beginEv, symObjAddr: 0x326C, symBinAddr: 0x100003A54, symSize: 0x24 }
  - { offset: 0x376F7, size: 0x8, addend: 0x0, symName: __ZNKSt6vectorIiSaIiEE8capacityEv, symObjAddr: 0x3244, symBinAddr: 0x100003A2C, symSize: 0x28 }
  - { offset: 0x3774E, size: 0x8, addend: 0x0, symName: __ZNSt6vectorIiSaIiEE5clearEv, symObjAddr: 0x3218, symBinAddr: 0x100003A00, symSize: 0x2C }
  - { offset: 0x37786, size: 0x8, addend: 0x0, symName: __ZSt10destroy_atIiEvPT_, symObjAddr: 0x3204, symBinAddr: 0x1000039EC, symSize: 0x14 }
  - { offset: 0x377BC, size: 0x8, addend: 0x0, symName: __ZNKSt10_Select1stISt4pairIKS0_IiiExEEclERKS3_, symObjAddr: 0x31EC, symBinAddr: 0x1000039D4, symSize: 0x18 }
  - { offset: 0x377F7, size: 0x8, addend: 0x0, symName: __ZNKSt13_Rb_tree_nodeISt4pairIKS0_IiiExEE9_M_valptrEv, symObjAddr: 0x31CC, symBinAddr: 0x1000039B4, symSize: 0x20 }
  - { offset: 0x3782B, size: 0x8, addend: 0x0, symName: __ZSt7forwardIRPSt18_Rb_tree_node_baseEOT_RNSt16remove_referenceIS3_E4typeE, symObjAddr: 0x31B8, symBinAddr: 0x1000039A0, symSize: 0x14 }
  - { offset: 0x378A9, size: 0x8, addend: 0x0, symName: __ZNSt4pairIPSt18_Rb_tree_node_baseS1_EC1IRPSt13_Rb_tree_nodeIS_IKS_IiiExEERS1_EEOT_OT0_, symObjAddr: 0x3170, symBinAddr: 0x100003958, symSize: 0x48 }
  - { offset: 0x378F3, size: 0x8, addend: 0x0, symName: __ZNSt8_Rb_treeISt4pairIiiES0_IKS1_xESt10_Select1stIS3_ESt4lessIS1_ESaIS3_EE17_M_construct_nodeIJRKSt21piecewise_construct_tSt5tupleIJOS1_EESE_IJEEEEEvPSt13_Rb_tree_nodeIS3_EDpOT_, symObjAddr: 0x3080, symBinAddr: 0x100003868, symSize: 0xF0 }
  - { offset: 0x379B0, size: 0x8, addend: 0x0, symName: __ZNSt8_Rb_treeISt4pairIiiES0_IKS1_xESt10_Select1stIS3_ESt4lessIS1_ESaIS3_EE11_M_get_nodeEv, symObjAddr: 0x2FAC, symBinAddr: 0x100003794, symSize: 0xD4 }
  - { offset: 0x37A7D, size: 0x8, addend: 0x0, symName: __ZNSt10_Head_baseILm0EOSt4pairIiiELb0EEC2IS1_EEOT_, symObjAddr: 0x2F7C, symBinAddr: 0x100003764, symSize: 0x30 }
  - { offset: 0x37B14, size: 0x8, addend: 0x0, symName: __ZNSt8_Rb_treeISt4pairIiiES0_IKS1_xESt10_Select1stIS3_ESt4lessIS1_ESaIS3_EE21_M_get_Node_allocatorEv, symObjAddr: 0x2F68, symBinAddr: 0x100003750, symSize: 0x14 }
  - { offset: 0x37B3A, size: 0x8, addend: 0x0, symName: __ZSt14__relocate_a_1IiiENSt9enable_ifIXsrSt24__is_bitwise_relocatableIT_vE5valueEPS2_E4typeES4_S4_S4_RSaIT0_E, symObjAddr: 0x2EBC, symBinAddr: 0x1000036A4, symSize: 0xAC }
  - { offset: 0x37C0A, size: 0x8, addend: 0x0, symName: __ZN9__gnu_cxx17__normal_iteratorIPivEC1ERKS1_, symObjAddr: 0x2E94, symBinAddr: 0x10000367C, symSize: 0x28 }
  - { offset: 0x37C35, size: 0x8, addend: 0x0, symName: __ZSt12__niter_baseIPiET_S1_, symObjAddr: 0x2E80, symBinAddr: 0x100003668, symSize: 0x14 }
  - { offset: 0x37C8F, size: 0x8, addend: 0x0, symName: __ZNSt6vectorIiSaIiEEaSERKS1_, symObjAddr: 0x2B30, symBinAddr: 0x100003318, symSize: 0x350 }
  - { offset: 0x37E13, size: 0x8, addend: 0x0, symName: __ZSt11__addressofIKSt6vectorIiSaIiEEEPT_RS4_, symObjAddr: 0x2B1C, symBinAddr: 0x100003304, symSize: 0x14 }
  - { offset: 0x37E45, size: 0x8, addend: 0x0, symName: __ZSt8_DestroyIiEvPT_, symObjAddr: 0x2AFC, symBinAddr: 0x1000032E4, symSize: 0x20 }
  - { offset: 0x37E77, size: 0x8, addend: 0x0, symName: __ZSt11__addressofIiEPT_RS0_, symObjAddr: 0x2AE8, symBinAddr: 0x1000032D0, symSize: 0x14 }
  - { offset: 0x37EAD, size: 0x8, addend: 0x0, symName: __ZNSt15__new_allocatorIiE10deallocateEPim, symObjAddr: 0x2AB8, symBinAddr: 0x1000032A0, symSize: 0x30 }
  - { offset: 0x37EF7, size: 0x8, addend: 0x0, symName: __ZNSt15__new_allocatorIcE10deallocateEPcm, symObjAddr: 0x2A90, symBinAddr: 0x100003278, symSize: 0x28 }
  - { offset: 0x37F3D, size: 0x8, addend: 0x0, symName: __ZSt11__addressofIKcEPT_RS1_, symObjAddr: 0x2A7C, symBinAddr: 0x100003264, symSize: 0x14 }
  - { offset: 0x37F73, size: 0x8, addend: 0x0, symName: __ZN9__gnu_cxx16__aligned_membufISt4pairIKS1_IiiExEE7_M_addrEv, symObjAddr: 0x2A68, symBinAddr: 0x100003250, symSize: 0x14 }
  - { offset: 0x37F9D, size: 0x8, addend: 0x0, symName: __ZNSt8_Rb_treeISt4pairIiiES0_IKS1_xESt10_Select1stIS3_ESt4lessIS1_ESaIS3_EE14_M_insert_nodeEPSt18_Rb_tree_node_baseSB_PSt13_Rb_tree_nodeIS3_E, symObjAddr: 0x2998, symBinAddr: 0x100003180, symSize: 0xD0 }
  - { offset: 0x38007, size: 0x8, addend: 0x0, symName: __ZNSt8_Rb_treeISt4pairIiiES0_IKS1_xESt10_Select1stIS3_ESt4lessIS1_ESaIS3_EE6_S_keyEPKSt13_Rb_tree_nodeIS3_E, symObjAddr: 0x2970, symBinAddr: 0x100003158, symSize: 0x28 }
  - { offset: 0x38035, size: 0x8, addend: 0x0, symName: __ZNSt17_Rb_tree_iteratorISt4pairIKS0_IiiExEEmmEv, symObjAddr: 0x2940, symBinAddr: 0x100003128, symSize: 0x30 }
  - { offset: 0x380A7, size: 0x8, addend: 0x0, symName: __ZNSt4pairIPSt18_Rb_tree_node_baseS1_EC1IRS1_S4_EEOT_OT0_, symObjAddr: 0x28F8, symBinAddr: 0x1000030E0, symSize: 0x48 }
  - { offset: 0x380F1, size: 0x8, addend: 0x0, symName: __ZNSt8_Rb_treeISt4pairIiiES0_IKS1_xESt10_Select1stIS3_ESt4lessIS1_ESaIS3_EE11_M_leftmostEv, symObjAddr: 0x28E0, symBinAddr: 0x1000030C8, symSize: 0x18 }
  - { offset: 0x3811B, size: 0x8, addend: 0x0, symName: __ZNSt8_Rb_treeISt4pairIiiES0_IKS1_xESt10_Select1stIS3_ESt4lessIS1_ESaIS3_EE24_M_get_insert_unique_posERS2_, symObjAddr: 0x2788, symBinAddr: 0x100002F70, symSize: 0x158 }
  - { offset: 0x381D5, size: 0x8, addend: 0x0, symName: __ZNSt4pairIPSt18_Rb_tree_node_baseS1_EC1ERKS1_S4_Qcl16_S_constructibleIRKT_RKT0_EE, symObjAddr: 0x274C, symBinAddr: 0x100002F34, symSize: 0x3C }
  - { offset: 0x38209, size: 0x8, addend: 0x0, symName: __ZNSt8_Rb_treeISt4pairIiiES0_IKS1_xESt10_Select1stIS3_ESt4lessIS1_ESaIS3_EE6_S_keyEPKSt18_Rb_tree_node_base, symObjAddr: 0x2730, symBinAddr: 0x100002F18, symSize: 0x1C }
  - { offset: 0x38237, size: 0x8, addend: 0x0, symName: __ZNSt8_Rb_treeISt4pairIiiES0_IKS1_xESt10_Select1stIS3_ESt4lessIS1_ESaIS3_EE12_M_rightmostEv, symObjAddr: 0x2718, symBinAddr: 0x100002F00, symSize: 0x18 }
  - { offset: 0x38261, size: 0x8, addend: 0x0, symName: __ZNKSt8_Rb_treeISt4pairIiiES0_IKS1_xESt10_Select1stIS3_ESt4lessIS1_ESaIS3_EE4sizeEv, symObjAddr: 0x2700, symBinAddr: 0x100002EE8, symSize: 0x18 }
  - { offset: 0x3828B, size: 0x8, addend: 0x0, symName: __ZNKSt23_Rb_tree_const_iteratorISt4pairIKS0_IiiExEE13_M_const_castEv, symObjAddr: 0x26D8, symBinAddr: 0x100002EC0, symSize: 0x28 }
  - { offset: 0x382B5, size: 0x8, addend: 0x0, symName: __ZNSt8_Rb_treeISt4pairIiiES0_IKS1_xESt10_Select1stIS3_ESt4lessIS1_ESaIS3_EE14_M_create_nodeIJRKSt21piecewise_construct_tSt5tupleIJOS1_EESE_IJEEEEEPSt13_Rb_tree_nodeIS3_EDpOT_, symObjAddr: 0x2668, symBinAddr: 0x100002E50, symSize: 0x70 }
  - { offset: 0x38358, size: 0x8, addend: 0x0, symName: __ZNSt11_Tuple_implILm0EJOSt4pairIiiEEEC2IS1_EEOT_, symObjAddr: 0x262C, symBinAddr: 0x100002E14, symSize: 0x3C }
  - { offset: 0x38390, size: 0x8, addend: 0x0, symName: __ZNSt8_Rb_treeISt4pairIiiES0_IKS1_xESt10_Select1stIS3_ESt4lessIS1_ESaIS3_EE14_M_lower_boundEPSt13_Rb_tree_nodeIS3_EPSt18_Rb_tree_node_baseRS2_, symObjAddr: 0x2590, symBinAddr: 0x100002D78, symSize: 0x9C }
  - { offset: 0x383ED, size: 0x8, addend: 0x0, symName: __ZNSt8_Rb_treeISt4pairIiiES0_IKS1_xESt10_Select1stIS3_ESt4lessIS1_ESaIS3_EE6_M_endEv, symObjAddr: 0x2578, symBinAddr: 0x100002D60, symSize: 0x18 }
  - { offset: 0x38417, size: 0x8, addend: 0x0, symName: __ZNSt8_Rb_treeISt4pairIiiES0_IKS1_xESt10_Select1stIS3_ESt4lessIS1_ESaIS3_EE11_M_put_nodeEPSt13_Rb_tree_nodeIS3_E, symObjAddr: 0x24F8, symBinAddr: 0x100002CE0, symSize: 0x80 }
  - { offset: 0x384D7, size: 0x8, addend: 0x0, symName: __ZNSt8_Rb_treeISt4pairIiiES0_IKS1_xESt10_Select1stIS3_ESt4lessIS1_ESaIS3_EE15_M_destroy_nodeEPSt13_Rb_tree_nodeIS3_E, symObjAddr: 0x24AC, symBinAddr: 0x100002C94, symSize: 0x4C }
  - { offset: 0x3853B, size: 0x8, addend: 0x0, symName: __ZSt12__relocate_aIPiS0_SaIiEET0_T_S3_S2_RT1_, symObjAddr: 0x2450, symBinAddr: 0x100002C38, symSize: 0x5C }
  - { offset: 0x385D7, size: 0x8, addend: 0x0, symName: __ZSt9__fill_a1IPSt6vectorIiSaIiEES2_EN9__gnu_cxx11__enable_ifIXntsrSt11__is_scalarIT0_E7__valueEvE6__typeET_SB_RKS7_, symObjAddr: 0x2400, symBinAddr: 0x100002BE8, symSize: 0x50 }
  - { offset: 0x38635, size: 0x8, addend: 0x0, symName: __ZSt9__fill_a1IPiiEN9__gnu_cxx11__enable_ifIXsrSt11__is_scalarIT0_E7__valueEvE6__typeET_S8_RKS4_, symObjAddr: 0x23A8, symBinAddr: 0x100002B90, symSize: 0x58 }
  - { offset: 0x386A4, size: 0x8, addend: 0x0, symName: __ZNSt12_Destroy_auxILb1EE9__destroyIPiEEvT_S3_, symObjAddr: 0x2390, symBinAddr: 0x100002B78, symSize: 0x18 }
  - { offset: 0x386D8, size: 0x8, addend: 0x0, symName: __ZNSt12_Destroy_auxILb0EE9__destroyIPiEEvT_S3_, symObjAddr: 0x2344, symBinAddr: 0x100002B2C, symSize: 0x4C }
  - { offset: 0x3877A, size: 0x8, addend: 0x0, symName: __ZSt9addressofIKcEPT_RS1_, symObjAddr: 0x2328, symBinAddr: 0x100002B10, symSize: 0x1C }
  - { offset: 0x387B0, size: 0x8, addend: 0x0, symName: __ZN9__gnu_cxx16__aligned_membufISt4pairIKS1_IiiExEE6_M_ptrEv, symObjAddr: 0x230C, symBinAddr: 0x100002AF4, symSize: 0x1C }
  - { offset: 0x38802, size: 0x8, addend: 0x0, symName: __ZNSt17_Rb_tree_iteratorISt4pairIKS0_IiiExEEC1EPSt18_Rb_tree_node_base, symObjAddr: 0x22E8, symBinAddr: 0x100002AD0, symSize: 0x24 }
  - { offset: 0x38831, size: 0x8, addend: 0x0, symName: __ZNSt8_Rb_treeISt4pairIiiES0_IKS1_xESt10_Select1stIS3_ESt4lessIS1_ESaIS3_EE10_Auto_node9_M_insertES0_IPSt18_Rb_tree_node_baseSC_E, symObjAddr: 0x229C, symBinAddr: 0x100002A84, symSize: 0x4C }
  - { offset: 0x388B7, size: 0x8, addend: 0x0, symName: __ZNSt4pairIPSt18_Rb_tree_node_baseS1_EC1IS1_S1_EERS_IT_T0_E, symObjAddr: 0x2264, symBinAddr: 0x100002A4C, symSize: 0x38 }
  - { offset: 0x388F8, size: 0x8, addend: 0x0, symName: __ZNKSt8_Rb_treeISt4pairIiiES0_IKS1_xESt10_Select1stIS3_ESt4lessIS1_ESaIS3_EE10_Auto_node6_M_keyEv, symObjAddr: 0x2244, symBinAddr: 0x100002A2C, symSize: 0x20 }
  - { offset: 0x38922, size: 0x8, addend: 0x0, symName: __ZNSt8_Rb_treeISt4pairIiiES0_IKS1_xESt10_Select1stIS3_ESt4lessIS1_ESaIS3_EE29_M_get_insert_hint_unique_posESt23_Rb_tree_const_iteratorIS3_ERS2_, symObjAddr: 0x1F20, symBinAddr: 0x100002708, symSize: 0x324 }
  - { offset: 0x389F1, size: 0x8, addend: 0x0, symName: __ZNSt8_Rb_treeISt4pairIiiES0_IKS1_xESt10_Select1stIS3_ESt4lessIS1_ESaIS3_EE10_Auto_nodeD1Ev, symObjAddr: 0x1EDC, symBinAddr: 0x1000026C4, symSize: 0x44 }
  - { offset: 0x38A6A, size: 0x8, addend: 0x0, symName: __ZNSt8_Rb_treeISt4pairIiiES0_IKS1_xESt10_Select1stIS3_ESt4lessIS1_ESaIS3_EE10_Auto_nodeC1IJRKSt21piecewise_construct_tSt5tupleIJOS1_EESF_IJEEEEERS9_DpOT_, symObjAddr: 0x1E60, symBinAddr: 0x100002648, symSize: 0x7C }
  - { offset: 0x38AD3, size: 0x8, addend: 0x0, symName: __ZSt7forwardISt5tupleIJOSt4pairIiiEEEEOT_RNSt16remove_referenceIS5_E4typeE, symObjAddr: 0x1E4C, symBinAddr: 0x100002634, symSize: 0x14 }
  - { offset: 0x38B0C, size: 0x8, addend: 0x0, symName: __ZSt7forwardIRKSt21piecewise_construct_tEOT_RNSt16remove_referenceIS3_E4typeE, symObjAddr: 0x1E38, symBinAddr: 0x100002620, symSize: 0x14 }
  - { offset: 0x38B73, size: 0x8, addend: 0x0, symName: __ZNSt5tupleIJOSt4pairIiiEEEC1IJS1_EEEDpOT_, symObjAddr: 0x1DFC, symBinAddr: 0x1000025E4, symSize: 0x3C }
  - { offset: 0x38BB7, size: 0x8, addend: 0x0, symName: __ZSt7forwardISt4pairIiiEEOT_RNSt16remove_referenceIS2_E4typeE, symObjAddr: 0x1DE8, symBinAddr: 0x1000025D0, symSize: 0x14 }
  - { offset: 0x38BE9, size: 0x8, addend: 0x0, symName: __ZStssIiiiiENSt26common_comparison_categoryIJDTclL_ZNSt8__detail11__synth3wayEEcl7declvalIRT_EEcl7declvalIRT1_EEEEDTclL_ZNS1_11__synth3wayEEcl7declvalIRT0_EEcl7declvalIRT2_EEEEEE4typeERKSt4pairIS2_S7_ERKSE_IS4_S9_E, symObjAddr: 0x1D5C, symBinAddr: 0x100002544, symSize: 0x8C }
  - { offset: 0x38C70, size: 0x8, addend: 0x0, symName: __ZNKSt8_Rb_treeISt4pairIiiES0_IKS1_xESt10_Select1stIS3_ESt4lessIS1_ESaIS3_EE8key_compEv, symObjAddr: 0x1D44, symBinAddr: 0x10000252C, symSize: 0x18 }
  - { offset: 0x38C9A, size: 0x8, addend: 0x0, symName: __ZNSt8_Rb_treeISt4pairIiiES0_IKS1_xESt10_Select1stIS3_ESt4lessIS1_ESaIS3_EE11lower_boundERS2_, symObjAddr: 0x1CFC, symBinAddr: 0x1000024E4, symSize: 0x48 }
  - { offset: 0x38CD5, size: 0x8, addend: 0x0, symName: __ZNKSt8_Rb_treeISt4pairIiiES0_IKS1_xESt10_Select1stIS3_ESt4lessIS1_ESaIS3_EE9_M_mbeginEv, symObjAddr: 0x1CE4, symBinAddr: 0x1000024CC, symSize: 0x18 }
  - { offset: 0x38CFF, size: 0x8, addend: 0x0, symName: __ZNSt8_Rb_treeISt4pairIiiES0_IKS1_xESt10_Select1stIS3_ESt4lessIS1_ESaIS3_EE12_M_drop_nodeEPSt13_Rb_tree_nodeIS3_E, symObjAddr: 0x1CB0, symBinAddr: 0x100002498, symSize: 0x34 }
  - { offset: 0x38D36, size: 0x8, addend: 0x0, symName: __ZNSt8_Rb_treeISt4pairIiiES0_IKS1_xESt10_Select1stIS3_ESt4lessIS1_ESaIS3_EE7_S_leftEPSt18_Rb_tree_node_base, symObjAddr: 0x1C98, symBinAddr: 0x100002480, symSize: 0x18 }
  - { offset: 0x38D60, size: 0x8, addend: 0x0, symName: __ZNSt8_Rb_treeISt4pairIiiES0_IKS1_xESt10_Select1stIS3_ESt4lessIS1_ESaIS3_EE8_S_rightEPSt18_Rb_tree_node_base, symObjAddr: 0x1C80, symBinAddr: 0x100002468, symSize: 0x18 }
  - { offset: 0x38DA0, size: 0x8, addend: 0x0, symName: __ZNSt6vectorIiSaIiEE11_S_relocateEPiS2_S2_RS0_, symObjAddr: 0x1C4C, symBinAddr: 0x100002434, symSize: 0x34 }
  - { offset: 0x38DFD, size: 0x8, addend: 0x0, symName: __ZSt12__to_addressIiEPT_S1_, symObjAddr: 0x1C38, symBinAddr: 0x100002420, symSize: 0x14 }
  - { offset: 0x38E33, size: 0x8, addend: 0x0, symName: __ZNSt12_Vector_baseIiSaIiEE11_M_allocateEm, symObjAddr: 0x1B74, symBinAddr: 0x10000235C, symSize: 0xC4 }
  - { offset: 0x38EDD, size: 0x8, addend: 0x0, symName: __ZSt12construct_atIiJRKiEEDTgsnwcvPvLi0E_T_pispcl7declvalIT0_EEEEPS3_DpOS4_, symObjAddr: 0x1B2C, symBinAddr: 0x100002314, symSize: 0x48 }
  - { offset: 0x38F30, size: 0x8, addend: 0x0, symName: __ZSt7forwardIRKiEOT_RNSt16remove_referenceIS2_E4typeE, symObjAddr: 0x1B18, symBinAddr: 0x100002300, symSize: 0x14 }
  - { offset: 0x38F62, size: 0x8, addend: 0x0, symName: __ZSt8__fill_aIPSt6vectorIiSaIiEES2_EvT_S4_RKT0_, symObjAddr: 0x1AE8, symBinAddr: 0x1000022D0, symSize: 0x30 }
  - { offset: 0x38FC0, size: 0x8, addend: 0x0, symName: __ZSt8__fill_aIPiiEvT_S1_RKT0_, symObjAddr: 0x1AB8, symBinAddr: 0x1000022A0, symSize: 0x30 }
  - { offset: 0x3901E, size: 0x8, addend: 0x0, symName: __ZSt8_DestroyIPiEvT_S1_, symObjAddr: 0x1A74, symBinAddr: 0x10000225C, symSize: 0x44 }
  - { offset: 0x390DD, size: 0x8, addend: 0x0, symName: __ZNSt19__ptr_traits_ptr_toIPKcS0_Lb0EE10pointer_toERS0_, symObjAddr: 0x1A58, symBinAddr: 0x100002240, symSize: 0x1C }
  - { offset: 0x3910A, size: 0x8, addend: 0x0, symName: __ZNSt13_Rb_tree_nodeISt4pairIKS0_IiiExEE9_M_valptrEv, symObjAddr: 0x1A38, symBinAddr: 0x100002220, symSize: 0x20 }
  - { offset: 0x39134, size: 0x8, addend: 0x0, symName: __ZNSt8_Rb_treeISt4pairIiiES0_IKS1_xESt10_Select1stIS3_ESt4lessIS1_ESaIS3_EE3endEv, symObjAddr: 0x1A10, symBinAddr: 0x1000021F8, symSize: 0x28 }
  - { offset: 0x3915E, size: 0x8, addend: 0x0, symName: __ZNSt8_Rb_treeISt4pairIiiES0_IKS1_xESt10_Select1stIS3_ESt4lessIS1_ESaIS3_EE5beginEv, symObjAddr: 0x19E8, symBinAddr: 0x1000021D0, symSize: 0x28 }
  - { offset: 0x39188, size: 0x8, addend: 0x0, symName: __ZNSt8_Rb_treeISt4pairIiiES0_IKS1_xESt10_Select1stIS3_ESt4lessIS1_ESaIS3_EE22_M_emplace_hint_uniqueIJRKSt21piecewise_construct_tSt5tupleIJOS1_EESE_IJEEEEESt17_Rb_tree_iteratorIS3_ESt23_Rb_tree_const_iteratorIS3_EDpOT_, symObjAddr: 0x1904, symBinAddr: 0x1000020EC, symSize: 0xE4 }
  - { offset: 0x39249, size: 0x8, addend: 0x0, symName: __ZNSt23_Rb_tree_const_iteratorISt4pairIKS0_IiiExEEC1ERKSt17_Rb_tree_iteratorIS3_E, symObjAddr: 0x18DC, symBinAddr: 0x1000020C4, symSize: 0x28 }
  - { offset: 0x39274, size: 0x8, addend: 0x0, symName: __ZSt16forward_as_tupleIJSt4pairIiiEEESt5tupleIJDpOT_EES5_, symObjAddr: 0x18A4, symBinAddr: 0x10000208C, symSize: 0x38 }
  - { offset: 0x392AC, size: 0x8, addend: 0x0, symName: __ZNKSt4lessISt4pairIiiEEclERKS1_S4_, symObjAddr: 0x186C, symBinAddr: 0x100002054, symSize: 0x38 }
  - { offset: 0x39304, size: 0x8, addend: 0x0, symName: __ZNKSt8__detail10_Synth3wayclIiiEEDaRKT_RKT0_QrqXltfL0p_fL0p0_RNS_18__boolean_testableEXltfL0p0_fL0p_RNS_18__boolean_testableEE, symObjAddr: 0x1810, symBinAddr: 0x100001FF8, symSize: 0x5C }
  - { offset: 0x39362, size: 0x8, addend: 0x0, symName: __ZNKSt3mapISt4pairIiiExSt4lessIS1_ESaIS0_IKS1_xEEE8key_compEv, symObjAddr: 0x17E4, symBinAddr: 0x100001FCC, symSize: 0x2C }
  - { offset: 0x3938C, size: 0x8, addend: 0x0, symName: __ZNSt3mapISt4pairIiiExSt4lessIS1_ESaIS0_IKS1_xEEE11lower_boundERS4_, symObjAddr: 0x17C0, symBinAddr: 0x100001FA8, symSize: 0x24 }
  - { offset: 0x393CA, size: 0x8, addend: 0x0, symName: __ZSt7forwardIRiEOT_RNSt16remove_referenceIS1_E4typeE, symObjAddr: 0x17AC, symBinAddr: 0x100001F94, symSize: 0x14 }
  - { offset: 0x39400, size: 0x8, addend: 0x0, symName: __ZNSt8_Rb_treeISt4pairIiiES0_IKS1_xESt10_Select1stIS3_ESt4lessIS1_ESaIS3_EE8_M_beginEv, symObjAddr: 0x1790, symBinAddr: 0x100001F78, symSize: 0x1C }
  - { offset: 0x3942A, size: 0x8, addend: 0x0, symName: __ZNSt8_Rb_treeISt4pairIiiES0_IKS1_xESt10_Select1stIS3_ESt4lessIS1_ESaIS3_EE8_M_eraseEPSt13_Rb_tree_nodeIS3_E, symObjAddr: 0x172C, symBinAddr: 0x100001F14, symSize: 0x64 }
  - { offset: 0x394A3, size: 0x8, addend: 0x0, symName: __ZNSt20_Rb_tree_key_compareISt4lessISt4pairIiiEEEC2Ev, symObjAddr: 0x1718, symBinAddr: 0x100001F00, symSize: 0x14 }
  - { offset: 0x394DF, size: 0x8, addend: 0x0, symName: __ZNSt6vectorIiSaIiEE17_M_realloc_appendIJRKiEEEvDpOT_, symObjAddr: 0x1590, symBinAddr: 0x100001D78, symSize: 0x188 }
  - { offset: 0x39665, size: 0x8, addend: 0x0, symName: __ZZNSt6vectorIiSaIiEE17_M_realloc_appendIJRKiEEEvDpOT_EN6_GuardC1EPimRS0_, symObjAddr: 0x14B8, symBinAddr: 0x100001CA0, symSize: 0x44 }
  - { offset: 0x396AA, size: 0x8, addend: 0x0, symName: __ZZNSt6vectorIiSaIiEE17_M_realloc_appendIJRKiEEEvDpOT_EN6_GuardD1Ev, symObjAddr: 0x14FC, symBinAddr: 0x100001CE4, symSize: 0x94 }
  - { offset: 0x397B6, size: 0x8, addend: 0x0, symName: __ZN9__gnu_cxxmiIPiSt6vectorIiSaIiEEEENS_17__normal_iteratorIT_T0_E15difference_typeERKS8_SB_, symObjAddr: 0x1478, symBinAddr: 0x100001C60, symSize: 0x40 }
  - { offset: 0x39807, size: 0x8, addend: 0x0, symName: __ZNKSt6vectorIiSaIiEE12_M_check_lenEmPKc, symObjAddr: 0x13A8, symBinAddr: 0x100001B90, symSize: 0xD0 }
  - { offset: 0x39860, size: 0x8, addend: 0x0, symName: __ZNSt6vectorIiSaIiEE11_S_max_sizeERKS0_, symObjAddr: 0x1374, symBinAddr: 0x100001B5C, symSize: 0x34 }
  - { offset: 0x398B0, size: 0x8, addend: 0x0, symName: __ZNKSt12_Vector_baseIiSaIiEE19_M_get_Tp_allocatorEv, symObjAddr: 0x1360, symBinAddr: 0x100001B48, symSize: 0x14 }
  - { offset: 0x398DA, size: 0x8, addend: 0x0, symName: __ZNKSt6vectorIiSaIiEE8max_sizeEv, symObjAddr: 0x1340, symBinAddr: 0x100001B28, symSize: 0x20 }
  - { offset: 0x39944, size: 0x8, addend: 0x0, symName: __ZSt10__fill_n_aIPSt6vectorIiSaIiEEiS2_ET_S4_T0_RKT1_St26random_access_iterator_tag, symObjAddr: 0x12BC, symBinAddr: 0x100001AA4, symSize: 0x84 }
  - { offset: 0x399E7, size: 0x8, addend: 0x0, symName: __ZSt10__fill_n_aIPiiiET_S1_T0_RKT1_St26random_access_iterator_tag, symObjAddr: 0x1258, symBinAddr: 0x100001A40, symSize: 0x64 }
  - { offset: 0x39AC2, size: 0x8, addend: 0x0, symName: __ZNSt12_Vector_baseIiSaIiEE19_M_get_Tp_allocatorEv, symObjAddr: 0x1244, symBinAddr: 0x100001A2C, symSize: 0x14 }
  - { offset: 0x39AEC, size: 0x8, addend: 0x0, symName: __ZNSt12_Vector_baseIiSaIiEE13_M_deallocateEPim, symObjAddr: 0x11B8, symBinAddr: 0x1000019A0, symSize: 0x8C }
  - { offset: 0x39BBE, size: 0x8, addend: 0x0, symName: __ZNSt7__cxx1112basic_stringIcSt11char_traitsIcESaIcEE10_M_destroyEm, symObjAddr: 0x1120, symBinAddr: 0x100001908, symSize: 0x98 }
  - { offset: 0x39C7E, size: 0x8, addend: 0x0, symName: __ZNKSt7__cxx1112basic_stringIcSt11char_traitsIcESaIcEE13_M_local_dataEv, symObjAddr: 0x1100, symBinAddr: 0x1000018E8, symSize: 0x20 }
  - { offset: 0x39CE2, size: 0x8, addend: 0x0, symName: __ZNSt4pairIKS_IiiExEC1IS1_xEERS_IT_T0_E, symObjAddr: 0x10C8, symBinAddr: 0x1000018B0, symSize: 0x38 }
  - { offset: 0x39D23, size: 0x8, addend: 0x0, symName: __ZNKSt17_Rb_tree_iteratorISt4pairIKS0_IiiExEEdeEv, symObjAddr: 0x10A8, symBinAddr: 0x100001890, symSize: 0x20 }
  - { offset: 0x39D4D, size: 0x8, addend: 0x0, symName: __ZNSt17_Rb_tree_iteratorISt4pairIKS0_IiiExEEppEv, symObjAddr: 0x1078, symBinAddr: 0x100001860, symSize: 0x30 }
  - { offset: 0x39D7A, size: 0x8, addend: 0x0, symName: __ZSteqRKSt17_Rb_tree_iteratorISt4pairIKS0_IiiExEES6_, symObjAddr: 0x1048, symBinAddr: 0x100001830, symSize: 0x30 }
  - { offset: 0x39DB9, size: 0x8, addend: 0x0, symName: __ZNSt3mapISt4pairIiiExSt4lessIS1_ESaIS0_IKS1_xEEE3endEv, symObjAddr: 0x102C, symBinAddr: 0x100001814, symSize: 0x1C }
  - { offset: 0x39DE3, size: 0x8, addend: 0x0, symName: __ZNSt3mapISt4pairIiiExSt4lessIS1_ESaIS0_IKS1_xEEE5beginEv, symObjAddr: 0x1010, symBinAddr: 0x1000017F8, symSize: 0x1C }
  - { offset: 0x39E0D, size: 0x8, addend: 0x0, symName: __ZNSt3mapISt4pairIiiExSt4lessIS1_ESaIS0_IKS1_xEEEixEOS1_, symObjAddr: 0xF14, symBinAddr: 0x1000016FC, symSize: 0xFC }
  - { offset: 0x39EA1, size: 0x8, addend: 0x0, symName: __ZNSt4pairIiiEC1IRiS2_EEOT_OT0_, symObjAddr: 0xECC, symBinAddr: 0x1000016B4, symSize: 0x48 }
  - { offset: 0x39EEB, size: 0x8, addend: 0x0, symName: __ZN9__gnu_cxx17__normal_iteratorIPiSt6vectorIiSaIiEEEppEv, symObjAddr: 0xEA4, symBinAddr: 0x10000168C, symSize: 0x28 }
  - { offset: 0x39F39, size: 0x8, addend: 0x0, symName: __ZNSt8_Rb_treeISt4pairIiiES0_IKS1_xESt10_Select1stIS3_ESt4lessIS1_ESaIS3_EED1Ev, symObjAddr: 0xE70, symBinAddr: 0x100001658, symSize: 0x34 }
  - { offset: 0x39F99, size: 0x8, addend: 0x0, symName: __ZNSt8_Rb_treeISt4pairIiiES0_IKS1_xESt10_Select1stIS3_ESt4lessIS1_ESaIS3_EE13_Rb_tree_implIS7_Lb1EEC1Ev, symObjAddr: 0xE2C, symBinAddr: 0x100001614, symSize: 0x44 }
  - { offset: 0x3A006, size: 0x8, addend: 0x0, symName: __ZNSt6vectorIiSaIiEE9push_backERKi, symObjAddr: 0xDA0, symBinAddr: 0x100001588, symSize: 0x8C }
  - { offset: 0x3A077, size: 0x8, addend: 0x0, symName: __ZNSt5arrayIiLm200001EEixEm, symObjAddr: 0xD7C, symBinAddr: 0x100001564, symSize: 0x24 }
  - { offset: 0x3A0AD, size: 0x8, addend: 0x0, symName: __ZSt6fill_nIPSt6vectorIiSaIiEEiS2_ET_S4_T0_RKT1_, symObjAddr: 0xD34, symBinAddr: 0x10000151C, symSize: 0x48 }
  - { offset: 0x3A139, size: 0x8, addend: 0x0, symName: __ZNSt5arrayISt6vectorIiSaIiEELm200001EE5beginEv, symObjAddr: 0xD18, symBinAddr: 0x100001500, symSize: 0x1C }
  - { offset: 0x3A182, size: 0x8, addend: 0x0, symName: __ZSt6fill_nIPiiiET_S1_T0_RKT1_, symObjAddr: 0xCD0, symBinAddr: 0x1000014B8, symSize: 0x48 }
  - { offset: 0x3A20E, size: 0x8, addend: 0x0, symName: __ZNSt5arrayIiLm200001EE5beginEv, symObjAddr: 0xCB4, symBinAddr: 0x10000149C, symSize: 0x1C }
  - { offset: 0x3A25B, size: 0x8, addend: 0x0, symName: __ZNKSt6vectorIiSaIiEE4sizeEv, symObjAddr: 0xC8C, symBinAddr: 0x100001474, symSize: 0x28 }
  - { offset: 0x3A285, size: 0x8, addend: 0x0, symName: __ZNSt5arrayISt6vectorIiSaIiEELm200001EEixEm, symObjAddr: 0xC5C, symBinAddr: 0x100001444, symSize: 0x30 }
  - { offset: 0x3A2E3, size: 0x8, addend: 0x0, symName: __ZNSt6vectorIiSaIiEED1Ev, symObjAddr: 0xC00, symBinAddr: 0x1000013E8, symSize: 0x5C }
  - { offset: 0x3A363, size: 0x8, addend: 0x0, symName: __ZNSt12_Vector_baseIiSaIiEED2Ev, symObjAddr: 0xBB0, symBinAddr: 0x100001398, symSize: 0x50 }
  - { offset: 0x3A3A9, size: 0x8, addend: 0x0, symName: __ZNSt7__cxx1112basic_stringIcSt11char_traitsIcESaIcEE10_M_disposeEv, symObjAddr: 0xB68, symBinAddr: 0x100001350, symSize: 0x48 }
  - { offset: 0x3A3D6, size: 0x8, addend: 0x0, symName: __ZSt7forwardISt5tupleIJEEEOT_RNSt16remove_referenceIS2_E4typeE, symObjAddr: 0xB54, symBinAddr: 0x10000133C, symSize: 0x14 }
  - { offset: 0x3A408, size: 0x8, addend: 0x0, symName: __ZSt3maxImERKT_S2_S2_, symObjAddr: 0xB1C, symBinAddr: 0x100001304, symSize: 0x38 }
  - { offset: 0x3A450, size: 0x8, addend: 0x0, symName: __ZNKSt7__cxx1112basic_stringIcSt11char_traitsIcESaIcEE11_M_is_localEv, symObjAddr: 0xAB4, symBinAddr: 0x10000129C, symSize: 0x68 }
  - { offset: 0x3A47A, size: 0x8, addend: 0x0, symName: __ZNSt7__cxx1112basic_stringIcSt11char_traitsIcESaIcEE16_M_get_allocatorEv, symObjAddr: 0xAA0, symBinAddr: 0x100001288, symSize: 0x14 }
  - { offset: 0x3A4C8, size: 0x8, addend: 0x0, symName: __ZNSt7__cxx1112basic_stringIcSt11char_traitsIcESaIcEED1Ev, symObjAddr: 0xA78, symBinAddr: 0x100001260, symSize: 0x28 }
  - { offset: 0x3A4F1, size: 0x8, addend: 0x0, symName: _main, symObjAddr: 0x4EC, symBinAddr: 0x100000CD4, symSize: 0x58C }
  - { offset: 0x3A78D, size: 0x8, addend: 0x0, symName: __ZNSt10__pair_getILm1EE10__move_getIiiEEOT0_OSt4pairIT_S2_E, symObjAddr: 0x4CC, symBinAddr: 0x100000CB4, symSize: 0x20 }
  - { offset: 0x3A7C9, size: 0x8, addend: 0x0, symName: __ZSt3getILm1EiiEONSt13tuple_elementIXT_ESt4pairIT0_T1_EE4typeEOS4_, symObjAddr: 0x4AC, symBinAddr: 0x100000C94, symSize: 0x20 }
  - { offset: 0x3A80F, size: 0x8, addend: 0x0, symName: __ZNSt10__pair_getILm0EE10__move_getIiiEEOT_OSt4pairIS2_T0_E, symObjAddr: 0x490, symBinAddr: 0x100000C78, symSize: 0x1C }
  - { offset: 0x3A852, size: 0x8, addend: 0x0, symName: __ZSt4moveIRSt4pairIiiEEONSt16remove_referenceIT_E4typeEOS4_, symObjAddr: 0x47C, symBinAddr: 0x100000C64, symSize: 0x14 }
  - { offset: 0x3A884, size: 0x8, addend: 0x0, symName: __ZSt3getILm0EiiEONSt13tuple_elementIXT_ESt4pairIT0_T1_EE4typeEOS4_, symObjAddr: 0x45C, symBinAddr: 0x100000C44, symSize: 0x20 }
  - { offset: 0x3A8D8, size: 0x8, addend: 0x0, symName: __ZSt7forwardIxEOT_RNSt16remove_referenceIS0_E4typeE, symObjAddr: 0x448, symBinAddr: 0x100000C30, symSize: 0x14 }
  - { offset: 0x3A90A, size: 0x8, addend: 0x0, symName: __ZNSt10__pair_getILm1EE10__move_getIKSt4pairIiiExEEOT0_OS2_IT_S5_E, symObjAddr: 0x428, symBinAddr: 0x100000C10, symSize: 0x20 }
  - { offset: 0x3A946, size: 0x8, addend: 0x0, symName: __ZSt3getILm1EKSt4pairIiiExEONSt13tuple_elementIXT_ES0_IT0_T1_EE4typeEOS6_, symObjAddr: 0x408, symBinAddr: 0x100000BF0, symSize: 0x20 }
  - { offset: 0x3A99A, size: 0x8, addend: 0x0, symName: __ZSt7forwardIKSt4pairIiiEEOT_RNSt16remove_referenceIS3_E4typeE, symObjAddr: 0x3F4, symBinAddr: 0x100000BDC, symSize: 0x14 }
  - { offset: 0x3A9CC, size: 0x8, addend: 0x0, symName: __ZNSt10__pair_getILm0EE10__move_getIKSt4pairIiiExEEOT_OS2_IS5_T0_E, symObjAddr: 0x3D8, symBinAddr: 0x100000BC0, symSize: 0x1C }
  - { offset: 0x3AA0F, size: 0x8, addend: 0x0, symName: __ZSt4moveIRSt4pairIKS0_IiiExEEONSt16remove_referenceIT_E4typeEOS6_, symObjAddr: 0x3C4, symBinAddr: 0x100000BAC, symSize: 0x14 }
  - { offset: 0x3AA41, size: 0x8, addend: 0x0, symName: __ZSt3getILm0EKSt4pairIiiExEONSt13tuple_elementIXT_ES0_IT0_T1_EE4typeEOS6_, symObjAddr: 0x3A4, symBinAddr: 0x100000B8C, symSize: 0x20 }
  - { offset: 0x3AA8B, size: 0x8, addend: 0x0, symName: __ZNK9__gnu_cxx17__normal_iteratorIPiSt6vectorIiSaIiEEEdeEv, symObjAddr: 0x38C, symBinAddr: 0x100000B74, symSize: 0x18 }
  - { offset: 0x3AAB1, size: 0x8, addend: 0x0, symName: __ZN9__gnu_cxxeqIPiSt6vectorIiSaIiEEEEbRKNS_17__normal_iteratorIT_T0_EESA_QrqXeqcldtfL0p_4baseEcldtfL0p0_4baseERSt14convertible_toIbEE, symObjAddr: 0x348, symBinAddr: 0x100000B30, symSize: 0x44 }
  - { offset: 0x3AB02, size: 0x8, addend: 0x0, symName: __ZNK9__gnu_cxx17__normal_iteratorIPiSt6vectorIiSaIiEEE4baseEv, symObjAddr: 0x334, symBinAddr: 0x100000B1C, symSize: 0x14 }
  - { offset: 0x3AB2C, size: 0x8, addend: 0x0, symName: __ZNSt6vectorIiSaIiEE3endEv, symObjAddr: 0x30C, symBinAddr: 0x100000AF4, symSize: 0x28 }
  - { offset: 0x3AB7E, size: 0x8, addend: 0x0, symName: __ZN9__gnu_cxx17__normal_iteratorIPiSt6vectorIiSaIiEEEC1ERKS1_, symObjAddr: 0x2E4, symBinAddr: 0x100000ACC, symSize: 0x28 }
  - { offset: 0x3ABAD, size: 0x8, addend: 0x0, symName: __ZNSt6vectorIiSaIiEE5beginEv, symObjAddr: 0x2C0, symBinAddr: 0x100000AA8, symSize: 0x24 }
  - { offset: 0x3ABFB, size: 0x8, addend: 0x0, symName: __ZNSt3mapISt4pairIiiExSt4lessIS1_ESaIS0_IKS1_xEEED1Ev, symObjAddr: 0x2A0, symBinAddr: 0x100000A88, symSize: 0x20 }
  - { offset: 0x3AC3B, size: 0x8, addend: 0x0, symName: __ZNSt3mapISt4pairIiiExSt4lessIS1_ESaIS0_IKS1_xEEEC1Ev, symObjAddr: 0x280, symBinAddr: 0x100000A68, symSize: 0x20 }
  - { offset: 0x3AC7B, size: 0x8, addend: 0x0, symName: __ZNSt8_Rb_treeISt4pairIiiES0_IKS1_xESt10_Select1stIS3_ESt4lessIS1_ESaIS3_EEC1Ev, symObjAddr: 0x260, symBinAddr: 0x100000A48, symSize: 0x20 }
  - { offset: 0x3ACC9, size: 0x8, addend: 0x0, symName: __ZNSt8_Rb_treeISt4pairIiiES0_IKS1_xESt10_Select1stIS3_ESt4lessIS1_ESaIS3_EE13_Rb_tree_implIS7_Lb1EED1Ev, symObjAddr: 0x240, symBinAddr: 0x100000A28, symSize: 0x20 }
  - { offset: 0x3AD2D, size: 0x8, addend: 0x0, symName: __ZNSt6vectorIiSaIiEEC1Ev, symObjAddr: 0x220, symBinAddr: 0x100000A08, symSize: 0x20 }
  - { offset: 0x3AD6D, size: 0x8, addend: 0x0, symName: __ZNSt12_Vector_baseIiSaIiEEC2Ev, symObjAddr: 0x200, symBinAddr: 0x1000009E8, symSize: 0x20 }
  - { offset: 0x3ADBA, size: 0x8, addend: 0x0, symName: __ZNSt12_Vector_baseIiSaIiEE12_Vector_implD1Ev, symObjAddr: 0x1E0, symBinAddr: 0x1000009C8, symSize: 0x20 }
  - { offset: 0x3AE1D, size: 0x8, addend: 0x0, symName: __ZNSt12_Vector_baseIiSaIiEE17_Vector_impl_dataC2Ev, symObjAddr: 0x1B4, symBinAddr: 0x10000099C, symSize: 0x2C }
  - { offset: 0x3AE89, size: 0x8, addend: 0x0, symName: __ZNSt12_Vector_baseIiSaIiEE12_Vector_implC1EvQ26is_default_constructible_vIN9__gnu_cxx14__alloc_traitsIT0_NS5_10value_typeEE6rebindIT_E5otherEE, symObjAddr: 0x17C, symBinAddr: 0x100000964, symSize: 0x38 }
  - { offset: 0x3AEF5, size: 0x8, addend: 0x0, symName: __ZNKSt7__cxx1112basic_stringIcSt11char_traitsIcESaIcEE7_M_dataEv, symObjAddr: 0x164, symBinAddr: 0x10000094C, symSize: 0x18 }
  - { offset: 0x3AF22, size: 0x8, addend: 0x0, symName: __ZSt7forwardIiEOT_RNSt16remove_referenceIS0_E4typeE, symObjAddr: 0x150, symBinAddr: 0x100000938, symSize: 0x14 }
  - { offset: 0x3AF58, size: 0x8, addend: 0x0, symName: __ZNSt15_Rb_tree_header8_M_resetEv, symObjAddr: 0x114, symBinAddr: 0x1000008FC, symSize: 0x3C }
  - { offset: 0x3AF9C, size: 0x8, addend: 0x0, symName: __ZNSt15_Rb_tree_headerC2Ev, symObjAddr: 0xEC, symBinAddr: 0x1000008D4, symSize: 0x28 }
  - { offset: 0x3AFBE, size: 0x8, addend: 0x0, symName: __ZSt3minImERKT_S2_S2_, symObjAddr: 0xB4, symBinAddr: 0x10000089C, symSize: 0x38 }
  - { offset: 0x3B04B, size: 0x8, addend: 0x0, symName: __ZNSt7__cxx1112basic_stringIcSt11char_traitsIcESaIcEE12_Alloc_hiderD1Ev, symObjAddr: 0x94, symBinAddr: 0x10000087C, symSize: 0x20 }
  - { offset: 0x3B090, size: 0x8, addend: 0x0, symName: __ZSt17__size_to_integeri, symObjAddr: 0x80, symBinAddr: 0x100000868, symSize: 0x14 }
  - { offset: 0x3B0C1, size: 0x8, addend: 0x0, symName: __ZdlPvS_, symObjAddr: 0x68, symBinAddr: 0x100000850, symSize: 0x18 }
  - { offset: 0x3B0F7, size: 0x8, addend: 0x0, symName: __ZnwmPv, symObjAddr: 0x50, symBinAddr: 0x100000838, symSize: 0x18 }
  - { offset: 0x3B129, size: 0x8, addend: 0x0, symName: __ZStltSt15strong_orderingNSt9__cmp_cat8__unspecE, symObjAddr: 0x2C, symBinAddr: 0x100000814, symSize: 0x24 }
  - { offset: 0x3B15C, size: 0x8, addend: 0x0, symName: __ZSteqSt15strong_orderingNSt9__cmp_cat8__unspecE, symObjAddr: 0x8, symBinAddr: 0x1000007F0, symSize: 0x24 }
  - { offset: 0x3B18F, size: 0x8, addend: 0x0, symName: __ZSt21is_constant_evaluatedv, symObjAddr: 0x0, symBinAddr: 0x1000007E8, symSize: 0x8 }
...
